; Function Attrs: nounwind uwtable
define void @Wlc_NtkToNdrTest(ptr noundef %0) local_unnamed_addr #5 {
  %2 = tail call ptr @Wlc_NtkToNdr(ptr noundef %0)
  %3 = getelementptr i8, ptr %0, i64 648
  %.val18 = load i32, ptr %3, align 8, !tbaa !22
  %4 = sext i32 %.val18 to i64
  %5 = shl nsw i64 %4, 3
  %6 = tail call noalias ptr @malloc(i64 noundef %5) #24
  %7 = icmp sgt i32 %.val18, 1
  br i1 %7, label %.lr.ph, label %.critedge

.lr.ph:                                           ; preds = %1, %.lr.ph
  %indvars.iv = phi i64 [ %indvars.iv.next, %.lr.ph ], [ 1, %1 ]
  %8 = trunc nuw nsw i64 %indvars.iv to i32
  %9 = tail call ptr @Wlc_ObjName(ptr noundef nonnull %0, i32 noundef %8) #22
  %10 = getelementptr inbounds nuw ptr, ptr %6, i64 %indvars.iv
  store ptr %9, ptr %10, align 8, !tbaa !39
  %indvars.iv.next = add nuw nsw i64 %indvars.iv, 1
  %.val17 = load i32, ptr %3, align 8, !tbaa !22
  %11 = sext i32 %.val17 to i64
  %12 = icmp slt i64 %indvars.iv.next, %11
  br i1 %12, label %.lr.ph, label %.critedge, !llvm.loop !40

.critedge:                                        ; preds = %.lr.ph, %1
  tail call fastcc void @Ndr_WriteVerilog(ptr noundef null, ptr noundef %2, ptr noundef %6)
  %13 = tail call noalias ptr @fopen(ptr noundef nonnull @.str.2, ptr noundef nonnull @.str.23)
  %14 = icmp eq ptr %13, null
  br i1 %14, label %Ndr_Write.exit, label %Ndr_Write.exit.thread

Ndr_Write.exit.thread:                            ; preds = %.critedge
  %15 = getelementptr inbounds nuw i8, ptr %2, i64 16
  %16 = load ptr, ptr %15, align 8, !tbaa !16
  %17 = load i32, ptr %16, align 4, !tbaa !3
  %18 = zext i32 %17 to i64
  %19 = tail call i64 @fwrite(ptr noundef nonnull %16, i64 noundef 4, i64 noundef %18, ptr noundef nonnull %13)
  %20 = getelementptr inbounds nuw i8, ptr %2, i64 8
  %21 = load ptr, ptr %20, align 8, !tbaa !15
  %22 = load ptr, ptr %15, align 8, !tbaa !16
  %23 = load i32, ptr %22, align 4, !tbaa !3
  %24 = zext i32 %23 to i64
  %25 = tail call i64 @fwrite(ptr noundef %21, i64 noundef 1, i64 noundef %24, ptr noundef nonnull %13)
  %26 = tail call i32 @fclose(ptr noundef nonnull %13)
  br label %28

Ndr_Write.exit:                                   ; preds = %.critedge
  %27 = tail call i32 (ptr, ...) @printf(ptr noundef nonnull dereferenceable(1) @.str.24, ptr noundef nonnull @.str.2)
  %.not.i = icmp eq ptr %2, null
  br i1 %.not.i, label %Ndr_Delete.exit, label %28

28:                                               ; preds = %Ndr_Write.exit.thread, %Ndr_Write.exit
  %29 = getelementptr inbounds nuw i8, ptr %2, i64 8
  %30 = load ptr, ptr %29, align 8, !tbaa !15
  tail call void @free(ptr noundef %30) #22
  %31 = getelementptr inbounds nuw i8, ptr %2, i64 16
  %32 = load ptr, ptr %31, align 8, !tbaa !16
  tail call void @free(ptr noundef %32) #22
  tail call void @free(ptr noundef nonnull %2) #22
  br label %Ndr_Delete.exit

Ndr_Delete.exit:                                  ; preds = %Ndr_Write.exit, %28
  %.not = icmp eq ptr %6, null
  br i1 %.not, label %34, label %33

33:                                               ; preds = %Ndr_Delete.exit
  tail call void @free(ptr noundef nonnull %6) #22
  br label %34

34:                                               ; preds = %Ndr_Delete.exit, %33
  ret void
}